target datalayout = "e-m:e-p270:32:32-p271:32:32-p272:64:64-i64:64-i128:128-f80:128-n8:16:32:64-S128"
target triple = "x86_64-pc-linux-gnu"

%struct.Vec_Bit_t_ = type { i32, i32, ptr }
%struct.Vec_Int_t_ = type { i32, i32, ptr }

; Function Attrs: inlinehint nounwind uwtable
define internal ptr @Vec_BitAlloc(i32 noundef %0) #2 {
  %2 = alloca i32, align 4
  %3 = alloca ptr, align 8
  store i32 %0, ptr %2, align 4, !tbaa !3
  call void @llvm.lifetime.start.p0(i64 8, ptr %3) #11
  %4 = load i32, ptr %2, align 4, !tbaa !3
  %5 = ashr i32 %4, 5
  %6 = load i32, ptr %2, align 4, !tbaa !3
  %7 = and i32 %6, 31
  %8 = icmp sgt i32 %7, 0
  %9 = zext i1 %8 to i32
  %10 = add nsw i32 %5, %9
  store i32 %10, ptr %2, align 4, !tbaa !3
  %11 = call noalias ptr @malloc(i64 noundef 16) #12
  store ptr %11, ptr %3, align 8, !tbaa !10
  %12 = load ptr, ptr %3, align 8, !tbaa !10
  %13 = getelementptr inbounds nuw %struct.Vec_Bit_t_, ptr %12, i32 0, i32 1
  store i32 0, ptr %13, align 4, !tbaa !22
  %14 = load i32, ptr %2, align 4, !tbaa !3
  %15 = mul nsw i32 %14, 32
  %16 = load ptr, ptr %3, align 8, !tbaa !10
  %17 = getelementptr inbounds nuw %struct.Vec_Bit_t_, ptr %16, i32 0, i32 0
  store i32 %15, ptr %17, align 8, !tbaa !69
  %18 = load i32, ptr %2, align 4, !tbaa !3
  %19 = icmp ne i32 %18, 0
  br i1 %19, label %20, label %25

20:                                               ; preds = %1
  %21 = load i32, ptr %2, align 4, !tbaa !3
  %22 = sext i32 %21 to i64
  %23 = mul i64 4, %22
  %24 = call noalias ptr @malloc(i64 noundef %23) #12
  br label %26

25:                                               ; preds = %1
  br label %26

26:                                               ; preds = %25, %20
  %27 = phi ptr [ %24, %20 ], [ null, %25 ]
  %28 = load ptr, ptr %3, align 8, !tbaa !10
  %29 = getelementptr inbounds nuw %struct.Vec_Bit_t_, ptr %28, i32 0, i32 2
  store ptr %27, ptr %29, align 8, !tbaa !16
  %30 = load ptr, ptr %3, align 8, !tbaa !10
  call void @llvm.lifetime.end.p0(i64 8, ptr %3) #11
  ret ptr %30
}

; Function Attrs: inlinehint nounwind uwtable
define internal void @Vec_BitFree(ptr noundef %0) #2 {
  %2 = alloca ptr, align 8
  store ptr %0, ptr %2, align 8, !tbaa !10
  %3 = load ptr, ptr %2, align 8, !tbaa !10
  %4 = getelementptr inbounds nuw %struct.Vec_Bit_t_, ptr %3, i32 0, i32 2
  %5 = load ptr, ptr %4, align 8, !tbaa !16
  %6 = icmp ne ptr %5, null
  br i1 %6, label %7, label %13

7:                                                ; preds = %1
  %8 = load ptr, ptr %2, align 8, !tbaa !10
  %9 = getelementptr inbounds nuw %struct.Vec_Bit_t_, ptr %8, i32 0, i32 2
  %10 = load ptr, ptr %9, align 8, !tbaa !16
  call void @free(ptr noundef %10) #11
  %11 = load ptr, ptr %2, align 8, !tbaa !10
  %12 = getelementptr inbounds nuw %struct.Vec_Bit_t_, ptr %11, i32 0, i32 2
  store ptr null, ptr %12, align 8, !tbaa !16
  br label %14

13:                                               ; preds = %1
  br label %14

14:                                               ; preds = %13, %7
  %15 = load ptr, ptr %2, align 8, !tbaa !10
  %16 = icmp ne ptr %15, null
  br i1 %16, label %17, label %19

17:                                               ; preds = %14
  %18 = load ptr, ptr %2, align 8, !tbaa !10
  call void @free(ptr noundef %18) #11
  store ptr null, ptr %2, align 8, !tbaa !10
  br label %20

19:                                               ; preds = %14
  br label %20

20:                                               ; preds = %19, %17
  ret void
}

; Function Attrs: inlinehint nounwind uwtable
define internal ptr @Vec_BitStart(i32 noundef %0) #2 {
  %2 = alloca i32, align 4
  %3 = alloca ptr, align 8
  store i32 %0, ptr %2, align 4, !tbaa !3
  call void @llvm.lifetime.start.p0(i64 8, ptr %3) #11
  %4 = load i32, ptr %2, align 4, !tbaa !3
  %5 = ashr i32 %4, 5
  %6 = load i32, ptr %2, align 4, !tbaa !3
  %7 = and i32 %6, 31
  %8 = icmp sgt i32 %7, 0
  %9 = zext i1 %8 to i32
  %10 = add nsw i32 %5, %9
  store i32 %10, ptr %2, align 4, !tbaa !3
  %11 = load i32, ptr %2, align 4, !tbaa !3
  %12 = mul nsw i32 %11, 32
  %13 = call ptr @Vec_BitAlloc(i32 noundef %12)
  store ptr %13, ptr %3, align 8, !tbaa !10
  %14 = load i32, ptr %2, align 4, !tbaa !3
  %15 = mul nsw i32 %14, 32
  %16 = load ptr, ptr %3, align 8, !tbaa !10
  %17 = getelementptr inbounds nuw %struct.Vec_Bit_t_, ptr %16, i32 0, i32 1
  store i32 %15, ptr %17, align 4, !tbaa !22
  %18 = load ptr, ptr %3, align 8, !tbaa !10
  %19 = getelementptr inbounds nuw %struct.Vec_Bit_t_, ptr %18, i32 0, i32 2
  %20 = load ptr, ptr %19, align 8, !tbaa !16
  %21 = load i32, ptr %2, align 4, !tbaa !3
  %22 = sext i32 %21 to i64
  %23 = mul i64 4, %22
  call void @llvm.memset.p0.i64(ptr align 4 %20, i8 0, i64 %23, i1 false)
  %24 = load ptr, ptr %3, align 8, !tbaa !10
  call void @llvm.lifetime.end.p0(i64 8, ptr %3) #11
  ret ptr %24
}

; Function Attrs: inlinehint nounwind uwtable
define internal ptr @Vec_IntAlloc(i32 noundef %0) #2 {
  %2 = alloca i32, align 4
  %3 = alloca ptr, align 8
  store i32 %0, ptr %2, align 4, !tbaa !3
  call void @llvm.lifetime.start.p0(i64 8, ptr %3) #11
  %4 = call noalias ptr @malloc(i64 noundef 16) #12
  store ptr %4, ptr %3, align 8, !tbaa !7
  %5 = load i32, ptr %2, align 4, !tbaa !3
  %6 = icmp sgt i32 %5, 0
  br i1 %6, label %7, label %11

7:                                                ; preds = %1
  %8 = load i32, ptr %2, align 4, !tbaa !3
  %9 = icmp slt i32 %8, 16
  br i1 %9, label %10, label %11

10:                                               ; preds = %7
  store i32 16, ptr %2, align 4, !tbaa !3
  br label %11

11:                                               ; preds = %10, %7, %1
  %12 = load ptr, ptr %3, align 8, !tbaa !7
  %13 = getelementptr inbounds nuw %struct.Vec_Int_t_, ptr %12, i32 0, i32 1
  store i32 0, ptr %13, align 4, !tbaa !20
  %14 = load i32, ptr %2, align 4, !tbaa !3
  %15 = load ptr, ptr %3, align 8, !tbaa !7
  %16 = getelementptr inbounds nuw %struct.Vec_Int_t_, ptr %15, i32 0, i32 0
  store i32 %14, ptr %16, align 8, !tbaa !21
  %17 = load ptr, ptr %3, align 8, !tbaa !7
  %18 = getelementptr inbounds nuw %struct.Vec_Int_t_, ptr %17, i32 0, i32 0
  %19 = load i32, ptr %18, align 8, !tbaa !21
  %20 = icmp ne i32 %19, 0
  br i1 %20, label %21, label %28

21:                                               ; preds = %11
  %22 = load ptr, ptr %3, align 8, !tbaa !7
  %23 = getelementptr inbounds nuw %struct.Vec_Int_t_, ptr %22, i32 0, i32 0
  %24 = load i32, ptr %23, align 8, !tbaa !21
  %25 = sext i32 %24 to i64
  %26 = mul i64 4, %25
  %27 = call noalias ptr @malloc(i64 noundef %26) #12
  br label %29

28:                                               ; preds = %11
  br label %29

29:                                               ; preds = %28, %21
  %30 = phi ptr [ %27, %21 ], [ null, %28 ]
  %31 = load ptr, ptr %3, align 8, !tbaa !7
  %32 = getelementptr inbounds nuw %struct.Vec_Int_t_, ptr %31, i32 0, i32 2
  store ptr %30, ptr %32, align 8, !tbaa !18
  %33 = load ptr, ptr %3, align 8, !tbaa !7
  call void @llvm.lifetime.end.p0(i64 8, ptr %3) #11
  ret ptr %33
}

; Function Attrs: nounwind uwtable
define ptr @Gia_ManCollectVars(i32 noundef %0, ptr noundef %1, i32 noundef %2) #0 {
  %4 = alloca i32, align 4
  %5 = alloca ptr, align 8
  %6 = alloca i32, align 4
  %7 = alloca ptr, align 8
  %8 = alloca ptr, align 8
  store i32 %0, ptr %4, align 4, !tbaa !3
  store ptr %1, ptr %5, align 8, !tbaa !7
  store i32 %2, ptr %6, align 4, !tbaa !3
  call void @llvm.lifetime.start.p0(i64 8, ptr %7) #11
  %9 = call ptr @Vec_IntAlloc(i32 noundef 100)
  store ptr %9, ptr %7, align 8, !tbaa !7
  call void @llvm.lifetime.start.p0(i64 8, ptr %8) #11
  %10 = load i32, ptr %6, align 4, !tbaa !3
  %11 = call ptr @Vec_BitStart(i32 noundef %10)
  store ptr %11, ptr %8, align 8, !tbaa !10
  %12 = load i32, ptr %4, align 4, !tbaa !3
  %13 = load ptr, ptr %5, align 8, !tbaa !7
  %14 = load ptr, ptr %7, align 8, !tbaa !7
  %15 = load ptr, ptr %8, align 8, !tbaa !10
  call void @Gia_ManCollectVars_rec(i32 noundef %12, ptr noundef %13, ptr noundef %14, ptr noundef %15)
  %16 = load ptr, ptr %8, align 8, !tbaa !10
  call void @Vec_BitFree(ptr noundef %16)
  %17 = load ptr, ptr %7, align 8, !tbaa !7
  call void @llvm.lifetime.end.p0(i64 8, ptr %8) #11
  call void @llvm.lifetime.end.p0(i64 8, ptr %7) #11
  ret ptr %17
}