; Function Attrs: nounwind uwtable
define noalias noundef ptr @Gia_ManCollectVars(i32 noundef %0, ptr noundef readonly captures(none) %1, i32 noundef %2) local_unnamed_addr #0 {
  %4 = tail call noalias dereferenceable_or_null(16) ptr @malloc(i64 noundef 16) #15
  %5 = getelementptr inbounds nuw i8, ptr %4, i64 4
  store i32 0, ptr %5, align 4, !tbaa !15
  store i32 100, ptr %4, align 8, !tbaa !16
  %6 = tail call noalias dereferenceable_or_null(400) ptr @malloc(i64 noundef 400) #15
  %7 = getelementptr inbounds nuw i8, ptr %4, i64 8
  store ptr %6, ptr %7, align 8, !tbaa !11
  %8 = ashr i32 %2, 5
  %9 = and i32 %2, 31
  %10 = icmp ne i32 %9, 0
  %11 = zext i1 %10 to i32
  %12 = add nsw i32 %8, %11
  %13 = tail call noalias dereferenceable_or_null(16) ptr @malloc(i64 noundef 16) #15
  %14 = shl nsw i32 %12, 5
  store i32 %14, ptr %13, align 8, !tbaa !17
  %.not.i.i = icmp eq i32 %12, 0
  br i1 %.not.i.i, label %Vec_BitStart.exit, label %15

15:                                               ; preds = %3
  %16 = sext i32 %12 to i64
  %17 = shl nsw i64 %16, 2
  %18 = tail call noalias ptr @malloc(i64 noundef %17) #15
  br label %Vec_BitStart.exit

Vec_BitStart.exit:                                ; preds = %3, %15
  %.pre-phi8.i = phi i64 [ %17, %15 ], [ 0, %3 ]
  %19 = phi ptr [ %18, %15 ], [ null, %3 ]
  %20 = getelementptr inbounds nuw i8, ptr %13, i64 4
  %21 = getelementptr inbounds nuw i8, ptr %13, i64 8
  store ptr %19, ptr %21, align 8, !tbaa !3
  store i32 %14, ptr %20, align 4, !tbaa !18
  tail call void @llvm.memset.p0.i64(ptr align 4 %19, i8 0, i64 %.pre-phi8.i, i1 false)
  tail call void @Gia_ManCollectVars_rec(i32 noundef %0, ptr noundef %1, ptr noundef nonnull %4, ptr noundef nonnull %13)
  %.not.i = icmp eq ptr %19, null
  br i1 %.not.i, label %Vec_BitFree.exit, label %22

22:                                               ; preds = %Vec_BitStart.exit
  tail call void @free(ptr noundef nonnull %19) #16
  br label %Vec_BitFree.exit

Vec_BitFree.exit:                                 ; preds = %Vec_BitStart.exit, %22
  tail call void @free(ptr noundef nonnull %13) #16
  ret ptr %4
}